Certificate:
    Data:
        Version: 1 (0x0)
        Serial Number: 16 (0x10)
    Signature Algorithm: md5WithRSAEncryption
        Issuer: O=NOVA ROOT, L=Mountain View, ST=California, C=US
        Validity
            Not Before: Aug 11 19:42:57 2014 GMT
            Not After : Aug 11 19:42:57 2015 GMT
        Subject: C=US, ST=California, O=OpenStack, OU=NovaDev, CN=6c9ff0ad59fe4888-eb213cfa00a54dfd-2014-08-11T19:42:57Z
        Subject Public Key Info:
            Public Key Algorithm: rsaEncryption
                Public-Key: (1024 bit)
                Modulus:
                    00:b1:e2:94:33:51:2a:be:6e:54:3b:41:78:e8:50:
                    e0:e8:07:67:d8:19:51:f5:16:84:18:00:db:25:e9:
                    b3:90:15:dc:d8:90:f9:9e:d6:52:ae:c1:41:d4:80:
                    9b:f1:20:f8:27:be:08:27:f6:8e:39:a2:9d:cf:68:
                    e2:8e:58:60:e9:ae:47:eb:c9:0a:40:34:34:b3:ef:
                    aa:65:fc:ac:82:5f:24:01:36:bd:b7:8a:23:1e:9c:
                    b4:f2:5c:30:26:1a:5a:0f:55:61:ad:7d:01:76:ab:
                    53:e6:26:d4:f0:a5:84:01:36:03:b6:81:f1:6f:d4:
                    b0:dc:b3:7d:31:0e:07:31:c9
                Exponent: 65537 (0x10001)
    Signature Algorithm: md5WithRSAEncryption
         7b:20:ca:d3:63:7d:0e:33:5c:7a:64:6e:69:15:0b:c3:ac:b4:
         2c:97:e1:07:70:d2:7e:f6:79:3c:07:e6:f8:f8:c6:fc:f7:c1:
         34:58:fe:86:a6:b5:c9:f7:a0:55:47:c8:00:1a:f2:f4:df:b7:
         b0:95:d4:de:84:cd:67:7e:ac:04:b6:0a:32:85:5c:92:99:e7:
         05:02:3d:81:68:ab:a7:76:54:ec:25:2d:cb:58:60:81:55:cf:
         bf:8c:41:c4:2c:b3:11:6b:b4:4e:74:77:8b:61:a6:06:d9:ac:
         a0:df:0b:9f:a7:ca:80:b3:4e:f1:03:14:53:43:dd:fc:20:f5:
         84:b7
-----BEGIN CERTIFICATE-----
MIICRzCCAbACARAwDQYJKoZIhvcNAQEEBQAwTjESMBAGA1UEChMJTk9WQSBST09U
MRYwFAYDVQQHEw1Nb3VudGFpbiBWaWV3MRMwEQYDVQQIEwpDYWxpZm9ybmlhMQsw
CQYDVQQGEwJVUzAeFw0xNDA4MTExOTQyNTdaFw0xNTA4MTExOTQyNTdaMIGJMQsw
CQYDVQQGEwJVUzETMBEGA1UECAwKQ2FsaWZvcm5pYTESMBAGA1UECgwJT3BlblN0
YWNrMRAwDgYDVQQLDAdOb3ZhRGV2MT8wPQYDVQQDDDY2YzlmZjBhZDU5ZmU0ODg4
LWViMjEzY2ZhMDBhNTRkZmQtMjAxNC0wOC0xMVQxOTo0Mjo1N1owgZ8wDQYJKoZI
hvcNAQEBBQADgY0AMIGJAoGBALHilDNRKr5uVDtBeOhQ4OgHZ9gZUfUWhBgA2yXp
s5AV3NiQ+Z7WUq7BQdSAm/Eg+Ce+CCf2jjminc9o4o5YYOmuR+vJCkA0NLPvqmX8
rIJfJAE2vbeKIx6ctPJcMCYaWg9VYa19AXarU+Ym1PClhAE2A7aB8W/UsNyzfTEO
BzHJAgMBAAEwDQYJKoZIhvcNAQEEBQADgYEAeyDK02N9DjNcemRuaRULw6y0LJfh
B3DSfvZ5PAfm+PjG/PfBNFj+hqa1yfegVUfIABry9N+3sJXU3oTNZ36sBLYKMoVc
kpnnBQI9gWirp3ZU7CUty1hggVXPv4xBxCyzEWu0TnR3i2GmBtmsoN8Ln6fKgLNO
8QMUU0Pd/CD1hLc=
-----END CERTIFICATE-----
