Certificate:
    Data:
        Version: 1 (0x0)
        Serial Number: 17 (0x11)
    Signature Algorithm: md5WithRSAEncryption
        Issuer: O=NOVA ROOT, L=Mountain View, ST=California, C=US
        Validity
            Not Before: Aug 11 19:43:00 2014 GMT
            Not After : Aug 11 19:43:00 2015 GMT
        Subject: C=US, ST=California, O=OpenStack, OU=NovaDev, CN=4f67ebc7de484201-04b50025bbba4f04-2014-08-11T19:43:00Z
        Subject Public Key Info:
            Public Key Algorithm: rsaEncryption
                Public-Key: (1024 bit)
                Modulus:
                    00:bd:04:11:44:cd:c5:48:30:b5:8f:15:52:69:79:
                    af:a5:52:2d:87:34:16:ba:66:da:37:7d:c1:5b:76:
                    80:da:61:54:0c:2d:1c:65:78:45:5d:25:85:68:da:
                    d9:97:29:b7:1d:12:f2:ed:1a:09:14:93:9c:39:66:
                    09:fe:8b:35:c7:89:3a:91:d1:02:27:b3:d2:52:f4:
                    bc:2e:f5:b5:12:29:17:e2:4b:57:7f:ae:fe:f3:d7:
                    f8:9c:6d:8a:25:a5:b6:06:f4:6e:e1:09:53:05:d8:
                    2c:57:13:f8:f1:d2:3c:12:b1:81:54:3d:55:32:01:
                    d7:8b:2f:39:d6:47:65:b7:2f
                Exponent: 65537 (0x10001)
    Signature Algorithm: md5WithRSAEncryption
         08:04:fc:66:f4:84:71:50:4d:a1:6f:e4:33:53:4c:aa:0d:b4:
         6e:6f:0f:de:d9:e8:28:2a:56:bb:86:61:00:fe:ec:aa:33:6b:
         9f:f1:d5:d3:9a:9c:19:eb:34:d6:a5:b2:08:06:ee:ba:72:80:
         89:2b:ac:cc:91:a1:08:a7:b0:ee:e7:c4:d1:64:f0:b8:8b:5c:
         fc:6a:82:99:36:a2:15:6e:fe:03:72:ad:b5:8b:ea:45:bc:4b:
         be:31:1f:c3:0a:92:e9:3e:9a:e1:76:c3:8e:4e:80:d7:c8:a7:
         2a:63:ba:31:b1:4b:d6:4f:66:bb:7e:eb:35:96:b2:a5:1b:01:
         e8:b6
-----BEGIN CERTIFICATE-----
MIICRzCCAbACAREwDQYJKoZIhvcNAQEEBQAwTjESMBAGA1UEChMJTk9WQSBST09U
MRYwFAYDVQQHEw1Nb3VudGFpbiBWaWV3MRMwEQYDVQQIEwpDYWxpZm9ybmlhMQsw
CQYDVQQGEwJVUzAeFw0xNDA4MTExOTQzMDBaFw0xNTA4MTExOTQzMDBaMIGJMQsw
CQYDVQQGEwJVUzETMBEGA1UECAwKQ2FsaWZvcm5pYTESMBAGA1UECgwJT3BlblN0
YWNrMRAwDgYDVQQLDAdOb3ZhRGV2MT8wPQYDVQQDDDY0ZjY3ZWJjN2RlNDg0MjAx
LTA0YjUwMDI1YmJiYTRmMDQtMjAxNC0wOC0xMVQxOTo0MzowMFowgZ8wDQYJKoZI
hvcNAQEBBQADgY0AMIGJAoGBAL0EEUTNxUgwtY8VUml5r6VSLYc0Frpm2jd9wVt2
gNphVAwtHGV4RV0lhWja2Zcptx0S8u0aCRSTnDlmCf6LNceJOpHRAiez0lL0vC71
tRIpF+JLV3+u/vPX+JxtiiWltgb0buEJUwXYLFcT+PHSPBKxgVQ9VTIB14svOdZH
ZbcvAgMBAAEwDQYJKoZIhvcNAQEEBQADgYEACAT8ZvSEcVBNoW/kM1NMqg20bm8P
3tnoKCpWu4ZhAP7sqjNrn/HV05qcGes01qWyCAbuunKAiSuszJGhCKew7ufE0WTw
uItc/GqCmTaiFW7+A3KttYvqRbxLvjEfwwqS6T6a4XbDjk6A18inKmO6MbFL1k9m
u37rNZaypRsB6LY=
-----END CERTIFICATE-----
