Certificate:
    Data:
        Version: 1 (0x0)
        Serial Number: 18 (0x12)
    Signature Algorithm: md5WithRSAEncryption
        Issuer: O=NOVA ROOT, L=Mountain View, ST=California, C=US
        Validity
            Not Before: Aug 11 19:43:04 2014 GMT
            Not After : Aug 11 19:43:04 2015 GMT
        Subject: C=US, ST=California, O=OpenStack, OU=NovaDev, CN=411ce2b84cc641af-eb213cfa00a54dfd-2014-08-11T19:43:04Z
        Subject Public Key Info:
            Public Key Algorithm: rsaEncryption
                Public-Key: (1024 bit)
                Modulus:
                    00:a3:61:ab:05:a4:81:2d:c9:09:8b:64:a8:09:d9:
                    cc:2c:31:d5:31:fe:71:97:21:c4:09:fb:bc:36:b2:
                    55:a7:f2:c1:c9:34:f4:ba:e7:33:26:dc:12:63:a2:
                    50:52:4f:7e:34:e3:e1:59:22:7e:61:be:05:58:96:
                    32:81:f5:7f:9f:6c:11:17:80:76:e3:df:92:dc:b7:
                    c0:59:ca:0c:e7:2d:ad:49:d4:d3:ed:84:16:a5:be:
                    09:fe:ef:41:11:a9:e4:85:dc:31:6a:bf:f6:94:7d:
                    fe:06:ee:fe:09:98:e5:89:43:88:28:e8:97:8b:2a:
                    71:39:ce:ee:f5:f8:bf:03:f9
                Exponent: 65537 (0x10001)
    Signature Algorithm: md5WithRSAEncryption
         64:d0:fe:a9:3b:25:27:cd:c7:6a:7f:62:9c:22:1a:2c:8c:97:
         02:e3:3f:5f:41:61:c5:70:aa:ad:1e:7b:98:13:3b:fb:e0:12:
         dd:4f:fb:40:1e:c2:97:ec:72:44:df:16:8c:5c:8f:f9:79:f5:
         ab:67:69:cf:3b:80:fa:d9:0a:bf:83:99:8b:3c:b1:e4:fb:00:
         ef:d0:de:c3:71:b1:41:92:50:ce:dc:14:09:42:a8:c1:99:dd:
         cc:d0:f7:40:c7:b4:24:2a:94:64:02:d8:f0:30:58:78:f9:c9:
         be:70:50:ba:41:39:4b:8a:d5:ff:fb:2f:9a:03:5e:74:73:39:
         6d:ae
-----BEGIN CERTIFICATE-----
MIICRzCCAbACARIwDQYJKoZIhvcNAQEEBQAwTjESMBAGA1UEChMJTk9WQSBST09U
MRYwFAYDVQQHEw1Nb3VudGFpbiBWaWV3MRMwEQYDVQQIEwpDYWxpZm9ybmlhMQsw
CQYDVQQGEwJVUzAeFw0xNDA4MTExOTQzMDRaFw0xNTA4MTExOTQzMDRaMIGJMQsw
CQYDVQQGEwJVUzETMBEGA1UECAwKQ2FsaWZvcm5pYTESMBAGA1UECgwJT3BlblN0
YWNrMRAwDgYDVQQLDAdOb3ZhRGV2MT8wPQYDVQQDDDY0MTFjZTJiODRjYzY0MWFm
LWViMjEzY2ZhMDBhNTRkZmQtMjAxNC0wOC0xMVQxOTo0MzowNFowgZ8wDQYJKoZI
hvcNAQEBBQADgY0AMIGJAoGBAKNhqwWkgS3JCYtkqAnZzCwx1TH+cZchxAn7vDay
Vafywck09LrnMybcEmOiUFJPfjTj4VkifmG+BViWMoH1f59sEReAduPfkty3wFnK
DOctrUnU0+2EFqW+Cf7vQRGp5IXcMWq/9pR9/gbu/gmY5YlDiCjol4sqcTnO7vX4
vwP5AgMBAAEwDQYJKoZIhvcNAQEEBQADgYEAZND+qTslJ83Han9inCIaLIyXAuM/
X0FhxXCqrR57mBM7++AS3U/7QB7Cl+xyRN8WjFyP+Xn1q2dpzzuA+tkKv4OZizyx
5PsA79Dew3GxQZJQztwUCUKowZndzND3QMe0JCqUZALY8DBYePnJvnBQukE5S4rV
//svmgNedHM5ba4=
-----END CERTIFICATE-----
