Certificate:
    Data:
        Version: 1 (0x0)
        Serial Number: 19 (0x13)
    Signature Algorithm: md5WithRSAEncryption
        Issuer: O=NOVA ROOT, L=Mountain View, ST=California, C=US
        Validity
            Not Before: Aug 11 19:43:07 2014 GMT
            Not After : Aug 11 19:43:07 2015 GMT
        Subject: C=US, ST=California, O=OpenStack, OU=NovaDev, CN=411ce2b84cc641af-6ae131c107104b3e-2014-08-11T19:43:07Z
        Subject Public Key Info:
            Public Key Algorithm: rsaEncryption
                Public-Key: (1024 bit)
                Modulus:
                    00:c6:0a:ed:cc:0b:c2:48:7d:f3:a7:5e:9b:58:0a:
                    a2:eb:08:a9:75:66:6f:94:08:48:de:7f:a8:80:c6:
                    ef:5a:e7:32:0b:a6:a5:70:9f:85:3f:ed:dd:a9:15:
                    9c:f3:28:75:6d:42:bb:2e:5a:dd:ca:0a:d4:2c:ec:
                    41:c6:7f:5b:4e:aa:97:dc:b3:6d:9d:2d:f6:a1:a8:
                    f3:e2:70:47:d1:3a:01:eb:7d:0d:bf:78:cd:33:d1:
                    5b:22:9d:22:01:cc:6f:a4:06:2d:3b:4e:a6:02:c1:
                    39:7f:5e:6c:66:61:94:e1:0d:75:2d:df:50:45:1d:
                    7c:3d:62:7a:1f:68:93:c3:6b
                Exponent: 65537 (0x10001)
    Signature Algorithm: md5WithRSAEncryption
         6a:b5:18:94:60:5b:f0:ac:68:37:5e:1f:5e:28:9a:7c:9d:0d:
         ea:a6:e9:dc:b2:ec:95:06:22:dd:0a:31:0a:8e:c3:b1:87:92:
         2f:e5:ba:19:de:60:c6:ea:9f:05:7a:e3:72:10:7c:c9:f1:ae:
         7a:9a:5d:d7:03:2f:cd:f6:71:a2:01:55:47:41:8f:0e:0d:44:
         3d:e7:7d:dd:19:3b:3e:75:1f:d5:55:f5:7c:1c:fa:f9:36:03:
         3f:44:81:eb:6f:82:b5:b6:2b:e1:63:32:a5:ad:a8:84:df:2e:
         f9:00:d7:b4:50:3b:17:02:da:20:bc:b3:62:8e:40:2b:46:ab:
         72:6f
-----BEGIN CERTIFICATE-----
MIICRzCCAbACARMwDQYJKoZIhvcNAQEEBQAwTjESMBAGA1UEChMJTk9WQSBST09U
MRYwFAYDVQQHEw1Nb3VudGFpbiBWaWV3MRMwEQYDVQQIEwpDYWxpZm9ybmlhMQsw
CQYDVQQGEwJVUzAeFw0xNDA4MTExOTQzMDdaFw0xNTA4MTExOTQzMDdaMIGJMQsw
CQYDVQQGEwJVUzETMBEGA1UECAwKQ2FsaWZvcm5pYTESMBAGA1UECgwJT3BlblN0
YWNrMRAwDgYDVQQLDAdOb3ZhRGV2MT8wPQYDVQQDDDY0MTFjZTJiODRjYzY0MWFm
LTZhZTEzMWMxMDcxMDRiM2UtMjAxNC0wOC0xMVQxOTo0MzowN1owgZ8wDQYJKoZI
hvcNAQEBBQADgY0AMIGJAoGBAMYK7cwLwkh986dem1gKousIqXVmb5QISN5/qIDG
71rnMgumpXCfhT/t3akVnPModW1Cuy5a3coK1CzsQcZ/W06ql9yzbZ0t9qGo8+Jw
R9E6Aet9Db94zTPRWyKdIgHMb6QGLTtOpgLBOX9ebGZhlOENdS3fUEUdfD1ieh9o
k8NrAgMBAAEwDQYJKoZIhvcNAQEEBQADgYEAarUYlGBb8KxoN14fXiiafJ0N6qbp
3LLslQYi3QoxCo7DsYeSL+W6Gd5gxuqfBXrjchB8yfGueppd1wMvzfZxogFVR0GP
Dg1EPed93Rk7PnUf1VX1fBz6+TYDP0SB62+CtbYr4WMypa2ohN8u+QDXtFA7FwLa
ILyzYo5AK0arcm8=
-----END CERTIFICATE-----
