Certificate:
    Data:
        Version: 1 (0x0)
        Serial Number: 20 (0x14)
    Signature Algorithm: md5WithRSAEncryption
        Issuer: O=NOVA ROOT, L=Mountain View, ST=California, C=US
        Validity
            Not Before: Aug 11 19:43:11 2014 GMT
            Not After : Aug 11 19:43:11 2015 GMT
        Subject: C=US, ST=California, O=OpenStack, OU=NovaDev, CN=2b2da07a5e0a46a5-6ae131c107104b3e-2014-08-11T19:43:11Z
        Subject Public Key Info:
            Public Key Algorithm: rsaEncryption
                Public-Key: (1024 bit)
                Modulus:
                    00:c7:71:e1:83:b3:bb:3f:43:b8:63:6c:50:d5:9a:
                    61:26:9c:7e:42:4f:d4:0a:36:36:df:f5:29:9c:a8:
                    b1:51:e7:e4:c9:95:18:ff:17:4b:4a:75:60:41:91:
                    11:b6:58:6e:08:50:33:92:2d:4f:44:ca:9f:ed:ca:
                    14:10:54:ed:c7:2c:e8:02:46:c5:f0:04:a3:72:d2:
                    e0:f9:df:96:73:22:2b:59:66:c1:56:e2:0e:c3:f5:
                    25:a1:6e:55:f2:87:3b:84:80:8b:78:71:c4:8a:b7:
                    22:41:18:3c:d1:fe:d7:92:72:51:7c:04:b1:f3:b6:
                    2d:97:5a:0e:e8:69:8f:da:8d
                Exponent: 65537 (0x10001)
    Signature Algorithm: md5WithRSAEncryption
         8c:2b:a8:c1:39:50:00:aa:28:6c:c0:50:75:8f:a6:0a:66:3a:
         4f:d6:9b:64:67:8f:7c:7b:7b:f0:a1:ba:67:f3:51:bd:33:35:
         5b:d7:ad:40:c7:05:8c:9a:1f:5d:e0:6e:73:0b:0e:94:fb:73:
         ca:99:a0:c1:13:6f:16:df:2e:32:5a:1b:68:e7:16:e9:68:8d:
         8c:94:8f:4b:e8:6e:f5:0b:15:b1:66:f2:87:87:94:4a:60:07:
         06:c6:a3:b5:c2:19:02:d5:2d:63:bb:9d:60:d1:1b:c8:2c:15:
         29:5e:a0:94:39:b5:5f:ac:c8:54:c4:a1:a5:79:2b:92:0d:ac:
         3f:31
-----BEGIN CERTIFICATE-----
MIICRzCCAbACARQwDQYJKoZIhvcNAQEEBQAwTjESMBAGA1UEChMJTk9WQSBST09U
MRYwFAYDVQQHEw1Nb3VudGFpbiBWaWV3MRMwEQYDVQQIEwpDYWxpZm9ybmlhMQsw
CQYDVQQGEwJVUzAeFw0xNDA4MTExOTQzMTFaFw0xNTA4MTExOTQzMTFaMIGJMQsw
CQYDVQQGEwJVUzETMBEGA1UECAwKQ2FsaWZvcm5pYTESMBAGA1UECgwJT3BlblN0
YWNrMRAwDgYDVQQLDAdOb3ZhRGV2MT8wPQYDVQQDDDYyYjJkYTA3YTVlMGE0NmE1
LTZhZTEzMWMxMDcxMDRiM2UtMjAxNC0wOC0xMVQxOTo0MzoxMVowgZ8wDQYJKoZI
hvcNAQEBBQADgY0AMIGJAoGBAMdx4YOzuz9DuGNsUNWaYSacfkJP1Ao2Nt/1KZyo
sVHn5MmVGP8XS0p1YEGREbZYbghQM5ItT0TKn+3KFBBU7ccs6AJGxfAEo3LS4Pnf
lnMiK1lmwVbiDsP1JaFuVfKHO4SAi3hxxIq3IkEYPNH+15JyUXwEsfO2LZdaDuhp
j9qNAgMBAAEwDQYJKoZIhvcNAQEEBQADgYEAjCuowTlQAKoobMBQdY+mCmY6T9ab
ZGePfHt78KG6Z/NRvTM1W9etQMcFjJofXeBucwsOlPtzypmgwRNvFt8uMlobaOcW
6WiNjJSPS+hu9QsVsWbyh4eUSmAHBsajtcIZAtUtY7udYNEbyCwVKV6glDm1X6zI
VMShpXkrkg2sPzE=
-----END CERTIFICATE-----
